ARM GAS  C:\Users\giris\AppData\Local\Temp\ccwnzKbc.s 			page 1


   1              		.syntax unified
   2              		.cpu cortex-m3
   3              		.fpu softvfp
   4              		.eabi_attribute 20, 1
   5              		.eabi_attribute 21, 1
   6              		.eabi_attribute 23, 3
   7              		.eabi_attribute 24, 1
   8              		.eabi_attribute 25, 1
   9              		.eabi_attribute 26, 1
  10              		.eabi_attribute 30, 1
  11              		.eabi_attribute 34, 1
  12              		.eabi_attribute 18, 4
  13              		.thumb
  14              		.syntax unified
  15              		.file	"WatchDogTimer.c"
  16              		.text
  17              	.Ltext0:
  18              		.cfi_sections	.debug_frame
  19              		.section	.text.WD_Start,"ax",%progbits
  20              		.align	2
  21              		.global	WD_Start
  22              		.thumb
  23              		.thumb_func
  24              		.type	WD_Start, %function
  25              	WD_Start:
  26              	.LFB111:
  27              		.file 1 "source\\bsw\\WatchDogTimer.c"
   1:source\bsw/WatchDogTimer.c **** /**
   2:source\bsw/WatchDogTimer.c **** * \file <filename>
   3:source\bsw/WatchDogTimer.c **** * \author <author-name>
   4:source\bsw/WatchDogTimer.c **** * \date <date>
   5:source\bsw/WatchDogTimer.c **** *
   6:source\bsw/WatchDogTimer.c **** * \brief <Symbolic File name>
   7:source\bsw/WatchDogTimer.c **** *
   8:source\bsw/WatchDogTimer.c **** * \copyright Copyright ©2016
   9:source\bsw/WatchDogTimer.c **** * Department of electrical engineering and information technology, Hochschule Darmstadt - Universit
  10:source\bsw/WatchDogTimer.c **** * Permission to use, copy, modify, and distribute this software and its documentation for education
  11:source\bsw/WatchDogTimer.c **** * (unless permitted by h_da) and official h_da projects, is hereby granted for enrolled students of
  12:source\bsw/WatchDogTimer.c **** * this paragraph and the following paragraph appear in all copies, modifications, and distributions
  13:source\bsw/WatchDogTimer.c **** * Contact Prof.Dr.-Ing. Peter Fromm, peter.fromm@h-da.de, Birkenweg 8 64295 Darmstadt - GERMANY for
  14:source\bsw/WatchDogTimer.c **** *
  15:source\bsw/WatchDogTimer.c **** * \warning This software is a PROTOTYPE version and is not designed or intended for use in producti
  16:source\bsw/WatchDogTimer.c **** * The user represents and warrants that it will NOT use or redistribute the Software for such purpo
  17:source\bsw/WatchDogTimer.c **** * This prototype is for research purposes only. This software is provided "AS IS," without a warran
  18:source\bsw/WatchDogTimer.c **** */
  19:source\bsw/WatchDogTimer.c **** 
  20:source\bsw/WatchDogTimer.c **** /*****************************************************************************/
  21:source\bsw/WatchDogTimer.c **** /* Include files                                                             */
  22:source\bsw/WatchDogTimer.c **** /*****************************************************************************/
  23:source\bsw/WatchDogTimer.c **** #include "global.h"
  24:source\bsw/WatchDogTimer.c **** #include <stdio.h>
  25:source\bsw/WatchDogTimer.c **** #include <stdlib.h>
  26:source\bsw/WatchDogTimer.c **** #include "WatchDogTimer.h"
  27:source\bsw/WatchDogTimer.c **** /*****************************************************************************/
  28:source\bsw/WatchDogTimer.c **** /* Local pre-processor symbols/macros ('#define')                            */
  29:source\bsw/WatchDogTimer.c **** /*****************************************************************************/
  30:source\bsw/WatchDogTimer.c **** 
ARM GAS  C:\Users\giris\AppData\Local\Temp\ccwnzKbc.s 			page 2


  31:source\bsw/WatchDogTimer.c **** /*****************************************************************************/
  32:source\bsw/WatchDogTimer.c **** /* Global variable definitions (declared in header file with 'extern')       */
  33:source\bsw/WatchDogTimer.c **** /*****************************************************************************/
  34:source\bsw/WatchDogTimer.c **** 
  35:source\bsw/WatchDogTimer.c **** /*****************************************************************************/
  36:source\bsw/WatchDogTimer.c **** /* Local type definitions ('typedef')                                        */
  37:source\bsw/WatchDogTimer.c **** /*****************************************************************************/
  38:source\bsw/WatchDogTimer.c **** 
  39:source\bsw/WatchDogTimer.c **** /*****************************************************************************/
  40:source\bsw/WatchDogTimer.c **** /* Local variable definitions ('static')                                     */
  41:source\bsw/WatchDogTimer.c **** /*****************************************************************************/
  42:source\bsw/WatchDogTimer.c **** 
  43:source\bsw/WatchDogTimer.c **** 
  44:source\bsw/WatchDogTimer.c **** /*****************************************************************************/
  45:source\bsw/WatchDogTimer.c **** /* Local function prototypes ('static')                                      */
  46:source\bsw/WatchDogTimer.c **** /*****************************************************************************/
  47:source\bsw/WatchDogTimer.c **** uint8_t WD_RunnableAliveBitField;
  48:source\bsw/WatchDogTimer.c **** 
  49:source\bsw/WatchDogTimer.c **** /*****************************************************************************/
  50:source\bsw/WatchDogTimer.c **** /* Function implementation - global ('extern') and local ('static')          */
  51:source\bsw/WatchDogTimer.c **** /*****************************************************************************/
  52:source\bsw/WatchDogTimer.c **** 
  53:source\bsw/WatchDogTimer.c **** /**
  54:source\bsw/WatchDogTimer.c **** * Activate the Watchdog Trigger
  55:source\bsw/WatchDogTimer.c **** * \param WDT_TimeOut_t timeout - [IN] Timeout Period
  56:source\bsw/WatchDogTimer.c **** * @return RC_SUCCESS
  57:source\bsw/WatchDogTimer.c **** */
  58:source\bsw/WatchDogTimer.c **** RC_t WD_Start( WDT_TimeOut_t timeout)
  59:source\bsw/WatchDogTimer.c **** {
  28              		.loc 1 59 0
  29              		.cfi_startproc
  30              		@ args = 0, pretend = 0, frame = 0
  31              		@ frame_needed = 0, uses_anonymous_args = 0
  32              	.LVL0:
  33 0000 08B5     		push	{r3, lr}
  34              		.cfi_def_cfa_offset 8
  35              		.cfi_offset 3, -8
  36              		.cfi_offset 14, -4
  60:source\bsw/WatchDogTimer.c ****     CyWdtStart(timeout, CYWDT_LPMODE_NOCHANGE);
  37              		.loc 1 60 0
  38 0002 0021     		movs	r1, #0
  39 0004 FFF7FEFF 		bl	CyWdtStart
  40              	.LVL1:
  61:source\bsw/WatchDogTimer.c ****     return RC_SUCCESS;
  62:source\bsw/WatchDogTimer.c **** }
  41              		.loc 1 62 0
  42 0008 0020     		movs	r0, #0
  43 000a 08BD     		pop	{r3, pc}
  44              		.cfi_endproc
  45              	.LFE111:
  46              		.size	WD_Start, .-WD_Start
  47              		.section	.text.WD_Trigger,"ax",%progbits
  48              		.align	2
  49              		.global	WD_Trigger
  50              		.thumb
  51              		.thumb_func
  52              		.type	WD_Trigger, %function
ARM GAS  C:\Users\giris\AppData\Local\Temp\ccwnzKbc.s 			page 3


  53              	WD_Trigger:
  54              	.LFB112:
  63:source\bsw/WatchDogTimer.c **** 
  64:source\bsw/WatchDogTimer.c **** /**
  65:source\bsw/WatchDogTimer.c **** * Service the Watchdog Trigger
  66:source\bsw/WatchDogTimer.c **** * @return RC_SUCCESS
  67:source\bsw/WatchDogTimer.c **** */
  68:source\bsw/WatchDogTimer.c **** RC_t WD_Trigger()
  69:source\bsw/WatchDogTimer.c **** {
  55              		.loc 1 69 0
  56              		.cfi_startproc
  57              		@ args = 0, pretend = 0, frame = 0
  58              		@ frame_needed = 0, uses_anonymous_args = 0
  59 0000 08B5     		push	{r3, lr}
  60              		.cfi_def_cfa_offset 8
  61              		.cfi_offset 3, -8
  62              		.cfi_offset 14, -4
  70:source\bsw/WatchDogTimer.c ****     if(WD_RunnableAliveBitField == 0x0f)
  63              		.loc 1 70 0
  64 0002 054B     		ldr	r3, .L6
  65 0004 1B78     		ldrb	r3, [r3]	@ zero_extendqisi2
  66 0006 0F2B     		cmp	r3, #15
  67 0008 04D1     		bne	.L4
  71:source\bsw/WatchDogTimer.c ****     {
  72:source\bsw/WatchDogTimer.c ****         CyWdtClear();
  68              		.loc 1 72 0
  69 000a FFF7FEFF 		bl	CyWdtClear
  70              	.LVL2:
  73:source\bsw/WatchDogTimer.c ****         WD_RunnableAliveBitField = 0;
  71              		.loc 1 73 0
  72 000e 0022     		movs	r2, #0
  73 0010 014B     		ldr	r3, .L6
  74 0012 1A70     		strb	r2, [r3]
  75              	.L4:
  74:source\bsw/WatchDogTimer.c ****     }    
  75:source\bsw/WatchDogTimer.c ****     return RC_SUCCESS;
  76:source\bsw/WatchDogTimer.c **** }
  76              		.loc 1 76 0
  77 0014 0020     		movs	r0, #0
  78 0016 08BD     		pop	{r3, pc}
  79              	.L7:
  80              		.align	2
  81              	.L6:
  82 0018 00000000 		.word	WD_RunnableAliveBitField
  83              		.cfi_endproc
  84              	.LFE112:
  85              		.size	WD_Trigger, .-WD_Trigger
  86              		.section	.text.WD_CheckResetBit,"ax",%progbits
  87              		.align	2
  88              		.global	WD_CheckResetBit
  89              		.thumb
  90              		.thumb_func
  91              		.type	WD_CheckResetBit, %function
  92              	WD_CheckResetBit:
  93              	.LFB113:
  77:source\bsw/WatchDogTimer.c **** 
  78:source\bsw/WatchDogTimer.c **** /**
ARM GAS  C:\Users\giris\AppData\Local\Temp\ccwnzKbc.s 			page 4


  79:source\bsw/WatchDogTimer.c **** * Checks the watchdog bit
  80:source\bsw/WatchDogTimer.c **** * @return TRUE if watchdog reset bit was set
  81:source\bsw/WatchDogTimer.c **** */
  82:source\bsw/WatchDogTimer.c **** boolean_t WD_CheckResetBit()
  83:source\bsw/WatchDogTimer.c **** {
  94              		.loc 1 83 0
  95              		.cfi_startproc
  96              		@ args = 0, pretend = 0, frame = 0
  97              		@ frame_needed = 0, uses_anonymous_args = 0
  98              		@ link register save eliminated.
  84:source\bsw/WatchDogTimer.c ****     if(CyResetStatus & CY_RESET_WD)
  99              		.loc 1 84 0
 100 0000 044B     		ldr	r3, .L10
 101 0002 1B78     		ldrb	r3, [r3]	@ zero_extendqisi2
 102 0004 03F00803 		and	r3, r3, #8
 103 0008 03F0FF00 		and	r0, r3, #255
 104 000c 03B1     		cbz	r3, .L9
  85:source\bsw/WatchDogTimer.c ****     {
  86:source\bsw/WatchDogTimer.c ****         return TRUE;
 105              		.loc 1 86 0
 106 000e 0120     		movs	r0, #1
 107              	.L9:
  87:source\bsw/WatchDogTimer.c ****     }
  88:source\bsw/WatchDogTimer.c ****     else
  89:source\bsw/WatchDogTimer.c ****     {
  90:source\bsw/WatchDogTimer.c ****         return FALSE;
  91:source\bsw/WatchDogTimer.c ****     }
  92:source\bsw/WatchDogTimer.c **** }
 108              		.loc 1 92 0
 109 0010 7047     		bx	lr
 110              	.L11:
 111 0012 00BF     		.align	2
 112              	.L10:
 113 0014 00000000 		.word	CyResetStatus
 114              		.cfi_endproc
 115              	.LFE113:
 116              		.size	WD_CheckResetBit, .-WD_CheckResetBit
 117              		.section	.text.WD_Alive,"ax",%progbits
 118              		.align	2
 119              		.global	WD_Alive
 120              		.thumb
 121              		.thumb_func
 122              		.type	WD_Alive, %function
 123              	WD_Alive:
 124              	.LFB114:
  93:source\bsw/WatchDogTimer.c **** 
  94:source\bsw/WatchDogTimer.c **** /**
  95:source\bsw/WatchDogTimer.c **** * This function sets the bit at the corresponding position.
  96:source\bsw/WatchDogTimer.c **** * It is called by every runnable using a uniqe position.
  97:source\bsw/WatchDogTimer.c **** * 0 = JoyStick_run, 1 = Control_run, 2 = Engine_run, 3 = brakelight_run
  98:source\bsw/WatchDogTimer.c **** * @return RC_SUCCESS
  99:source\bsw/WatchDogTimer.c **** */
 100:source\bsw/WatchDogTimer.c **** RC_t WD_Alive(uint8_t myBitPosition)
 101:source\bsw/WatchDogTimer.c **** {
 125              		.loc 1 101 0
 126              		.cfi_startproc
 127              		@ args = 0, pretend = 0, frame = 0
ARM GAS  C:\Users\giris\AppData\Local\Temp\ccwnzKbc.s 			page 5


 128              		@ frame_needed = 0, uses_anonymous_args = 0
 129              		@ link register save eliminated.
 130              	.LVL3:
 102:source\bsw/WatchDogTimer.c ****     WD_RunnableAliveBitField |= (1U) << myBitPosition;
 131              		.loc 1 102 0
 132 0000 0123     		movs	r3, #1
 133 0002 03FA00F0 		lsl	r0, r3, r0
 134              	.LVL4:
 135 0006 034A     		ldr	r2, .L13
 136 0008 1378     		ldrb	r3, [r2]	@ zero_extendqisi2
 137 000a 1843     		orrs	r0, r0, r3
 138 000c 1070     		strb	r0, [r2]
 103:source\bsw/WatchDogTimer.c ****     
 104:source\bsw/WatchDogTimer.c ****     return RC_SUCCESS;
 105:source\bsw/WatchDogTimer.c **** }...
 139              		.loc 1 105 0
 140 000e 0020     		movs	r0, #0
 141 0010 7047     		bx	lr
 142              	.L14:
 143 0012 00BF     		.align	2
 144              	.L13:
 145 0014 00000000 		.word	WD_RunnableAliveBitField
 146              		.cfi_endproc
 147              	.LFE114:
 148              		.size	WD_Alive, .-WD_Alive
 149              		.comm	WD_RunnableAliveBitField,1,1
 150              		.text
 151              	.Letext0:
 152              		.file 2 "source\\bsw\\global.h"
 153              		.file 3 "c:\\program files (x86)\\cypress\\psoc creator\\4.4\\psoc creator\\import\\gnu\\arm\\5.4.
 154              		.file 4 "c:\\program files (x86)\\cypress\\psoc creator\\4.4\\psoc creator\\import\\gnu\\arm\\5.4.
 155              		.file 5 "Generated_Source\\PSoC5/cytypes.h"
 156              		.file 6 "Generated_Source\\PSoC5/ErikaOS_1_common_ee_types.inc"
 157              		.file 7 "Generated_Source\\PSoC5/ErikaOS_1_cortex_mx_ee_cpu.inc"
 158              		.file 8 "source\\bsw\\WatchDogTimer.h"
 159              		.file 9 "Generated_Source\\PSoC5/ErikaOS_1_ee_oo_intfunc.inc"
 160              		.file 10 "Generated_Source\\PSoC5/ErikaOS_1_cortex_mx_ee_context.inc"
 161              		.file 11 "Generated_Source\\PSoC5/ErikaOS_1_common_ee_primitives.inc"
 162              		.file 12 "Generated_Source\\PSoC5/CyLib.h"
 163              		.file 13 "Generated_Source\\PSoC5/core_cm3.h"